target datalayout = "e-m:e-p270:32:32-p271:32:32-p272:64:64-i64:64-i128:128-f80:128-n8:16:32:64-S128"
target triple = "x86_64-pc-linux-gnu"

%struct.rb_data_type_struct = type { ptr, %struct.anon, ptr, ptr, i64 }
%struct.anon = type { ptr, ptr, ptr, ptr, [1 x ptr] }
%struct.RTypedData = type { %struct.RBasic, ptr, i64, ptr }
%struct.RBasic = type { i64, i64 }
%struct.pkcs7_st = type { ptr, i64, i32, i32, ptr, %union.anon, %struct.PKCS7_CTX_st }
%union.anon = type { ptr }
%struct.PKCS7_CTX_st = type { ptr, ptr }

@cPKCS7 = internal global i64 0, align 8
@ossl_pkcs7_type = internal constant %struct.rb_data_type_struct { ptr @.str.53, %struct.anon { ptr null, ptr @ossl_pkcs7_free, ptr null, ptr null, [1 x ptr] zeroinitializer }, ptr null, ptr null, i64 33 }, align 8
@ePKCS7Error = internal global i64 0, align 8
@rb_eRuntimeError = external global i64, align 8
@.str.1 = private unnamed_addr constant [26 x i8] c"PKCS7 wasn't initialized.\00", align 1
@.str.54 = private unnamed_addr constant [26 x i8] c"Could not parse the PKCS7\00", align 1
@.str.55 = private unnamed_addr constant [20 x i8] c"No content in PKCS7\00", align 1
@.str.56 = private unnamed_addr constant [6 x i8] c"@data\00", align 1
@.str.57 = private unnamed_addr constant [14 x i8] c"@error_string\00", align 1

; Function Attrs: nounwind sspstrong uwtable
define internal i64 @ossl_pkcs7_s_read_smime(i64 noundef %0, i64 noundef %1) #0 {
  %3 = alloca i64, align 8
  %4 = alloca i64, align 8
  %5 = alloca ptr, align 8
  %6 = alloca ptr, align 8
  %7 = alloca ptr, align 8
  %8 = alloca i64, align 8
  %9 = alloca i64, align 8
  store i64 %0, ptr %3, align 8, !tbaa !11
  store i64 %1, ptr %4, align 8, !tbaa !11
  call void @llvm.lifetime.start.p0(i64 8, ptr %5) #16
  call void @llvm.lifetime.start.p0(i64 8, ptr %6) #16
  call void @llvm.lifetime.start.p0(i64 8, ptr %7) #16
  call void @llvm.lifetime.start.p0(i64 8, ptr %8) #16
  call void @llvm.lifetime.start.p0(i64 8, ptr %9) #16
  %10 = load i64, ptr @cPKCS7, align 8, !tbaa !11
  %11 = call i64 @rb_data_typed_object_wrap(i64 noundef %10, ptr noundef null, ptr noundef @ossl_pkcs7_type)
  store i64 %11, ptr %8, align 8, !tbaa !11
  %12 = call ptr @ossl_obj2bio(ptr noundef %4)
  store ptr %12, ptr %5, align 8, !tbaa !17
  store ptr null, ptr %6, align 8, !tbaa !17
  %13 = load ptr, ptr %5, align 8, !tbaa !17
  %14 = call ptr @SMIME_read_PKCS7(ptr noundef %13, ptr noundef %6)
  store ptr %14, ptr %7, align 8, !tbaa !6
  %15 = load ptr, ptr %5, align 8, !tbaa !17
  %16 = call i32 @BIO_free(ptr noundef %15)
  %17 = load ptr, ptr %7, align 8, !tbaa !6
  %18 = icmp ne ptr %17, null
  br i1 %18, label %21, label %19

19:                                               ; preds = %2
  %20 = load i64, ptr @ePKCS7Error, align 8, !tbaa !11
  call void (i64, ptr, ...) @ossl_raise(i64 noundef %20, ptr noundef @.str.54) #17
  unreachable

21:                                               ; preds = %2
  %22 = load ptr, ptr %7, align 8, !tbaa !6
  %23 = getelementptr inbounds nuw %struct.pkcs7_st, ptr %22, i32 0, i32 5
  %24 = load ptr, ptr %23, align 8, !tbaa !19
  %25 = icmp ne ptr %24, null
  br i1 %25, label %29, label %26

26:                                               ; preds = %21
  %27 = load ptr, ptr %7, align 8, !tbaa !6
  call void @PKCS7_free(ptr noundef %27)
  %28 = load i64, ptr @ePKCS7Error, align 8, !tbaa !11
  call void (i64, ptr, ...) @ossl_raise(i64 noundef %28, ptr noundef @.str.55) #17
  unreachable

29:                                               ; preds = %21
  %30 = load ptr, ptr %6, align 8, !tbaa !17
  %31 = icmp ne ptr %30, null
  br i1 %31, label %32, label %35

32:                                               ; preds = %29
  %33 = load ptr, ptr %6, align 8, !tbaa !17
  %34 = call i64 @ossl_membio2str(ptr noundef %33)
  br label %36

35:                                               ; preds = %29
  br label %36

36:                                               ; preds = %35, %32
  %37 = phi i64 [ %34, %32 ], [ 4, %35 ]
  store i64 %37, ptr %9, align 8, !tbaa !11
  br label %38

38:                                               ; preds = %36
  %39 = load ptr, ptr %7, align 8, !tbaa !6
  %40 = icmp ne ptr %39, null
  br i1 %40, label %43, label %41

41:                                               ; preds = %38
  %42 = load i64, ptr @rb_eRuntimeError, align 8, !tbaa !11
  call void (i64, ptr, ...) @ossl_raise(i64 noundef %42, ptr noundef @.str.1) #17
  unreachable

43:                                               ; preds = %38
  %44 = load ptr, ptr %7, align 8, !tbaa !6
  %45 = load i64, ptr %8, align 8, !tbaa !11
  %46 = inttoptr i64 %45 to ptr
  %47 = getelementptr inbounds nuw %struct.RTypedData, ptr %46, i32 0, i32 3
  store ptr %44, ptr %47, align 8, !tbaa !13
  br label %48

48:                                               ; preds = %43
  br label %49

49:                                               ; preds = %48
  %50 = load i64, ptr %8, align 8, !tbaa !11
  %51 = load i64, ptr %9, align 8, !tbaa !11
  %52 = call i64 @rb_iv_set(i64 noundef %50, ptr noundef @.str.56, i64 noundef %51)
  %53 = load i64, ptr %8, align 8, !tbaa !11
  %54 = call i64 @rb_iv_set(i64 noundef %53, ptr noundef @.str.57, i64 noundef 4)
  %55 = load i64, ptr %8, align 8, !tbaa !11
  call void @llvm.lifetime.end.p0(i64 8, ptr %9) #16
  call void @llvm.lifetime.end.p0(i64 8, ptr %8) #16
  call void @llvm.lifetime.end.p0(i64 8, ptr %7) #16
  call void @llvm.lifetime.end.p0(i64 8, ptr %6) #16
  call void @llvm.lifetime.end.p0(i64 8, ptr %5) #16
  ret i64 %55
}