; Function Attrs: nounwind sspstrong uwtable
define internal i64 @ossl_pkcs7_s_read_smime(i64 %0, i64 noundef %1) #0 {
  %3 = alloca i64, align 8
  %4 = alloca ptr, align 8
  store i64 %1, ptr %3, align 8, !tbaa !6
  call void @llvm.lifetime.start.p0(i64 8, ptr nonnull %4) #5
  %5 = load i64, ptr @cPKCS7, align 8, !tbaa !6
  %6 = tail call i64 @rb_data_typed_object_wrap(i64 noundef %5, ptr noundef null, ptr noundef nonnull @ossl_pkcs7_type) #5
  %7 = call ptr @ossl_obj2bio(ptr noundef nonnull %3) #5
  store ptr null, ptr %4, align 8, !tbaa !15
  %8 = call ptr @SMIME_read_PKCS7(ptr noundef %7, ptr noundef nonnull %4) #5
  %9 = call i32 @BIO_free(ptr noundef %7) #5
  %.not = icmp eq ptr %8, null
  br i1 %.not, label %10, label %12

10:                                               ; preds = %2
  %11 = load i64, ptr @ePKCS7Error, align 8, !tbaa !6
  call void (i64, ptr, ...) @ossl_raise(i64 noundef %11, ptr noundef nonnull @.str.54) #6
  unreachable

12:                                               ; preds = %2
  %13 = getelementptr inbounds nuw i8, ptr %8, i64 32
  %14 = load ptr, ptr %13, align 8, !tbaa !17
  %.not12 = icmp eq ptr %14, null
  br i1 %.not12, label %15, label %17

15:                                               ; preds = %12
  call void @PKCS7_free(ptr noundef nonnull %8) #5
  %16 = load i64, ptr @ePKCS7Error, align 8, !tbaa !6
  call void (i64, ptr, ...) @ossl_raise(i64 noundef %16, ptr noundef nonnull @.str.55) #6
  unreachable

17:                                               ; preds = %12
  %18 = load ptr, ptr %4, align 8, !tbaa !15
  %.not13 = icmp eq ptr %18, null
  br i1 %.not13, label %21, label %19

19:                                               ; preds = %17
  %20 = call i64 @ossl_membio2str(ptr noundef nonnull %18) #5
  br label %21

21:                                               ; preds = %19, %17
  %22 = phi i64 [ %20, %19 ], [ 4, %17 ]
  %23 = inttoptr i64 %6 to ptr
  %24 = getelementptr inbounds nuw i8, ptr %23, i64 32
  store ptr %8, ptr %24, align 8, !tbaa !10
  %25 = call i64 @rb_iv_set(i64 noundef %6, ptr noundef nonnull @.str.56, i64 noundef %22) #5
  %26 = call i64 @rb_iv_set(i64 noundef %6, ptr noundef nonnull @.str.57, i64 noundef 4) #5
  call void @llvm.lifetime.end.p0(i64 8, ptr nonnull %4) #5
  ret i64 %6
}